; Function Attrs: mustprogress nounwind uwtable
define dso_local void @_ZN4node9inspector15InspectorSocketD2Ev(ptr nocapture noundef nonnull align 8 dereferenceable(8) %this) unnamed_addr #0 align 2 {
entry:
  %0 = load ptr, ptr %this, align 8
  %cmp.not.i = icmp eq ptr %0, null
  br i1 %cmp.not.i, label %_ZNSt10unique_ptrIN4node9inspector15ProtocolHandlerENS0_15FunctionDeleterIS2_XadL_ZNS1_15InspectorSocket8ShutdownEPS2_EEEEED2Ev.exit, label %if.then.i

if.then.i:                                        ; preds = %entry
  %vtable.i.i.i = load ptr, ptr %0, align 8
  %vfn.i.i.i = getelementptr inbounds i8, ptr %vtable.i.i.i, i64 40
  %1 = load ptr, ptr %vfn.i.i.i, align 8
  tail call void %1(ptr noundef nonnull align 8 dereferenceable(24) %0) #19
  br label %_ZNSt10unique_ptrIN4node9inspector15ProtocolHandlerENS0_15FunctionDeleterIS2_XadL_ZNS1_15InspectorSocket8ShutdownEPS2_EEEEED2Ev.exit

_ZNSt10unique_ptrIN4node9inspector15ProtocolHandlerENS0_15FunctionDeleterIS2_XadL_ZNS1_15InspectorSocket8ShutdownEPS2_EEEEED2Ev.exit: ; preds = %entry, %if.then.i
  store ptr null, ptr %this, align 8
  ret void
}